target datalayout = "e-m:e-p270:32:32-p271:32:32-p272:64:64-i64:64-i128:128-f80:128-n8:16:32:64-S128"
target triple = "x86_64-unknown-linux-gnu"

%"class.std::__cxx11::basic_string" = type { %"struct.std::__cxx11::basic_string<char>::_Alloc_hider", i64, %union.anon }
%"struct.std::__cxx11::basic_string<char>::_Alloc_hider" = type { ptr }
%union.anon = type { i64, [8 x i8] }
%"class.OpenColorIO_v2_4dev::GammaOpData" = type { %"class.OpenColorIO_v2_4dev::OpData", i32, %"class.std::vector.9", %"class.std::vector.9", %"class.std::vector.9", %"class.std::vector.9" }
%"class.OpenColorIO_v2_4dev::OpData" = type { ptr, %"class.std::mutex", %"class.OpenColorIO_v2_4dev::FormatMetadataImpl" }
%"class.std::mutex" = type { %"class.std::__mutex_base" }
%"class.std::__mutex_base" = type { %union.pthread_mutex_t }
%union.pthread_mutex_t = type { %struct.__pthread_mutex_s }
%struct.__pthread_mutex_s = type { i32, i32, i32, i32, i32, i16, i16, %struct.__pthread_internal_list }
%struct.__pthread_internal_list = type { ptr, ptr }
%"class.OpenColorIO_v2_4dev::FormatMetadataImpl" = type { %"class.OpenColorIO_v2_4dev::FormatMetadata", %"class.std::__cxx11::basic_string", %"class.std::__cxx11::basic_string", %"class.std::vector", %"class.std::vector.4" }
%"class.OpenColorIO_v2_4dev::FormatMetadata" = type { ptr }
%"class.std::vector" = type { %"struct.std::_Vector_base" }
%"struct.std::_Vector_base" = type { %"struct.std::_Vector_base<std::pair<std::__cxx11::basic_string<char>, std::__cxx11::basic_string<char>>, std::allocator<std::pair<std::__cxx11::basic_string<char>, std::__cxx11::basic_string<char>>>>::_Vector_impl" }
%"struct.std::_Vector_base<std::pair<std::__cxx11::basic_string<char>, std::__cxx11::basic_string<char>>, std::allocator<std::pair<std::__cxx11::basic_string<char>, std::__cxx11::basic_string<char>>>>::_Vector_impl" = type { %"struct.std::_Vector_base<std::pair<std::__cxx11::basic_string<char>, std::__cxx11::basic_string<char>>, std::allocator<std::pair<std::__cxx11::basic_string<char>, std::__cxx11::basic_string<char>>>>::_Vector_impl_data" }
%"struct.std::_Vector_base<std::pair<std::__cxx11::basic_string<char>, std::__cxx11::basic_string<char>>, std::allocator<std::pair<std::__cxx11::basic_string<char>, std::__cxx11::basic_string<char>>>>::_Vector_impl_data" = type { ptr, ptr, ptr }
%"class.std::vector.4" = type { %"struct.std::_Vector_base.5" }
%"struct.std::_Vector_base.5" = type { %"struct.std::_Vector_base<OpenColorIO_v2_4dev::FormatMetadataImpl, std::allocator<OpenColorIO_v2_4dev::FormatMetadataImpl>>::_Vector_impl" }
%"struct.std::_Vector_base<OpenColorIO_v2_4dev::FormatMetadataImpl, std::allocator<OpenColorIO_v2_4dev::FormatMetadataImpl>>::_Vector_impl" = type { %"struct.std::_Vector_base<OpenColorIO_v2_4dev::FormatMetadataImpl, std::allocator<OpenColorIO_v2_4dev::FormatMetadataImpl>>::_Vector_impl_data" }
%"struct.std::_Vector_base<OpenColorIO_v2_4dev::FormatMetadataImpl, std::allocator<OpenColorIO_v2_4dev::FormatMetadataImpl>>::_Vector_impl_data" = type { ptr, ptr, ptr }
%"class.std::vector.9" = type { %"struct.std::_Vector_base.10" }
%"struct.std::_Vector_base.10" = type { %"struct.std::_Vector_base<double, std::allocator<double>>::_Vector_impl" }
%"struct.std::_Vector_base<double, std::allocator<double>>::_Vector_impl" = type { %"struct.std::_Vector_base<double, std::allocator<double>>::_Vector_impl_data" }
%"struct.std::_Vector_base<double, std::allocator<double>>::_Vector_impl_data" = type { ptr, ptr, ptr }

@_ZZNK19OpenColorIO_v2_4dev11GammaOpData18validateParametersEvE9lowBounds = internal constant [1 x double] [double 1.000000e-02], align 8
@_ZZNK19OpenColorIO_v2_4dev11GammaOpData18validateParametersEvE10highBounds = internal constant [1 x double] [double 1.000000e+02], align 8
@_ZZNK19OpenColorIO_v2_4dev11GammaOpData18validateParametersEvE9lowBounds_0 = internal constant [2 x double] [double 1.000000e+00, double 0.000000e+00], align 16
@_ZZNK19OpenColorIO_v2_4dev11GammaOpData18validateParametersEvE10highBounds_0 = internal constant [2 x double] [double 1.000000e+01, double 9.000000e-01], align 16

; Function Attrs: mustprogress nounwind uwtable
define linkonce_odr hidden noundef i32 @_ZNK19OpenColorIO_v2_4dev11GammaOpData8getStyleEv(ptr noundef nonnull align 8 dereferenceable(272) %this) #5 comdat align 2 {
entry:
  %this.addr = alloca ptr, align 8
  store ptr %this, ptr %this.addr, align 8
  %this1 = load ptr, ptr %this.addr, align 8
  %m_style = getelementptr inbounds %"class.OpenColorIO_v2_4dev::GammaOpData", ptr %this1, i32 0, i32 1
  %0 = load i32, ptr %m_style, align 8
  ret i32 %0
}

; Function Attrs: mustprogress uwtable
define hidden void @_ZNK19OpenColorIO_v2_4dev11GammaOpData18validateParametersEv(ptr noundef nonnull align 8 dereferenceable(272) %this) unnamed_addr #4 align 2 {
entry:
  %this.addr = alloca ptr, align 8
  store ptr %this, ptr %this.addr, align 8
  %this1 = load ptr, ptr %this.addr, align 8
  %call = call noundef i32 @_ZNK19OpenColorIO_v2_4dev11GammaOpData8getStyleEv(ptr noundef nonnull align 8 dereferenceable(272) %this1) #3
  switch i32 %call, label %sw.epilog [
    i32 0, label %sw.bb
    i32 1, label %sw.bb
    i32 2, label %sw.bb
    i32 3, label %sw.bb
    i32 4, label %sw.bb
    i32 5, label %sw.bb
    i32 6, label %sw.bb2
    i32 7, label %sw.bb2
    i32 8, label %sw.bb2
    i32 9, label %sw.bb2
  ]

sw.bb:                                            ; preds = %entry, %entry, %entry, %entry, %entry, %entry
  %m_redParams = getelementptr inbounds %"class.OpenColorIO_v2_4dev::GammaOpData", ptr %this1, i32 0, i32 2
  call void @_ZN19OpenColorIO_v2_4dev14validateParamsERKSt6vectorIdSaIdEEjPKdS6_(ptr noundef nonnull align 8 dereferenceable(24) %m_redParams, i32 noundef 1, ptr noundef @_ZZNK19OpenColorIO_v2_4dev11GammaOpData18validateParametersEvE9lowBounds, ptr noundef @_ZZNK19OpenColorIO_v2_4dev11GammaOpData18validateParametersEvE10highBounds)
  %m_greenParams = getelementptr inbounds %"class.OpenColorIO_v2_4dev::GammaOpData", ptr %this1, i32 0, i32 3
  call void @_ZN19OpenColorIO_v2_4dev14validateParamsERKSt6vectorIdSaIdEEjPKdS6_(ptr noundef nonnull align 8 dereferenceable(24) %m_greenParams, i32 noundef 1, ptr noundef @_ZZNK19OpenColorIO_v2_4dev11GammaOpData18validateParametersEvE9lowBounds, ptr noundef @_ZZNK19OpenColorIO_v2_4dev11GammaOpData18validateParametersEvE10highBounds)
  %m_blueParams = getelementptr inbounds %"class.OpenColorIO_v2_4dev::GammaOpData", ptr %this1, i32 0, i32 4
  call void @_ZN19OpenColorIO_v2_4dev14validateParamsERKSt6vectorIdSaIdEEjPKdS6_(ptr noundef nonnull align 8 dereferenceable(24) %m_blueParams, i32 noundef 1, ptr noundef @_ZZNK19OpenColorIO_v2_4dev11GammaOpData18validateParametersEvE9lowBounds, ptr noundef @_ZZNK19OpenColorIO_v2_4dev11GammaOpData18validateParametersEvE10highBounds)
  %m_alphaParams = getelementptr inbounds %"class.OpenColorIO_v2_4dev::GammaOpData", ptr %this1, i32 0, i32 5
  call void @_ZN19OpenColorIO_v2_4dev14validateParamsERKSt6vectorIdSaIdEEjPKdS6_(ptr noundef nonnull align 8 dereferenceable(24) %m_alphaParams, i32 noundef 1, ptr noundef @_ZZNK19OpenColorIO_v2_4dev11GammaOpData18validateParametersEvE9lowBounds, ptr noundef @_ZZNK19OpenColorIO_v2_4dev11GammaOpData18validateParametersEvE10highBounds)
  br label %sw.epilog

sw.bb2:                                           ; preds = %entry, %entry, %entry, %entry
  %m_redParams3 = getelementptr inbounds %"class.OpenColorIO_v2_4dev::GammaOpData", ptr %this1, i32 0, i32 2
  call void @_ZN19OpenColorIO_v2_4dev14validateParamsERKSt6vectorIdSaIdEEjPKdS6_(ptr noundef nonnull align 8 dereferenceable(24) %m_redParams3, i32 noundef 2, ptr noundef @_ZZNK19OpenColorIO_v2_4dev11GammaOpData18validateParametersEvE9lowBounds_0, ptr noundef @_ZZNK19OpenColorIO_v2_4dev11GammaOpData18validateParametersEvE10highBounds_0)
  %m_greenParams4 = getelementptr inbounds %"class.OpenColorIO_v2_4dev::GammaOpData", ptr %this1, i32 0, i32 3
  call void @_ZN19OpenColorIO_v2_4dev14validateParamsERKSt6vectorIdSaIdEEjPKdS6_(ptr noundef nonnull align 8 dereferenceable(24) %m_greenParams4, i32 noundef 2, ptr noundef @_ZZNK19OpenColorIO_v2_4dev11GammaOpData18validateParametersEvE9lowBounds_0, ptr noundef @_ZZNK19OpenColorIO_v2_4dev11GammaOpData18validateParametersEvE10highBounds_0)
  %m_blueParams5 = getelementptr inbounds %"class.OpenColorIO_v2_4dev::GammaOpData", ptr %this1, i32 0, i32 4
  call void @_ZN19OpenColorIO_v2_4dev14validateParamsERKSt6vectorIdSaIdEEjPKdS6_(ptr noundef nonnull align 8 dereferenceable(24) %m_blueParams5, i32 noundef 2, ptr noundef @_ZZNK19OpenColorIO_v2_4dev11GammaOpData18validateParametersEvE9lowBounds_0, ptr noundef @_ZZNK19OpenColorIO_v2_4dev11GammaOpData18validateParametersEvE10highBounds_0)
  %m_alphaParams6 = getelementptr inbounds %"class.OpenColorIO_v2_4dev::GammaOpData", ptr %this1, i32 0, i32 5
  call void @_ZN19OpenColorIO_v2_4dev14validateParamsERKSt6vectorIdSaIdEEjPKdS6_(ptr noundef nonnull align 8 dereferenceable(24) %m_alphaParams6, i32 noundef 2, ptr noundef @_ZZNK19OpenColorIO_v2_4dev11GammaOpData18validateParametersEvE9lowBounds_0, ptr noundef @_ZZNK19OpenColorIO_v2_4dev11GammaOpData18validateParametersEvE10highBounds_0)
  br label %sw.epilog

sw.epilog:                                        ; preds = %sw.bb2, %sw.bb, %entry
  ret void
}