; Function Attrs: mustprogress uwtable
define hidden void @_ZNK19OpenColorIO_v2_4dev11GammaOpData18validateParametersEv(ptr nocapture noundef nonnull readonly align 8 dereferenceable(272) %this) unnamed_addr #3 align 2 {
entry:
  %m_style.i = getelementptr inbounds i8, ptr %this, i64 168
  %0 = load i32, ptr %m_style.i, align 8
  switch i32 %0, label %sw.epilog [
    i32 0, label %sw.bb
    i32 1, label %sw.bb
    i32 2, label %sw.bb
    i32 3, label %sw.bb
    i32 4, label %sw.bb
    i32 5, label %sw.bb
    i32 6, label %sw.bb2
    i32 7, label %sw.bb2
    i32 8, label %sw.bb2
    i32 9, label %sw.bb2
  ]

sw.bb:                                            ; preds = %entry, %entry, %entry, %entry, %entry, %entry
  %m_redParams = getelementptr inbounds i8, ptr %this, i64 176
  tail call void @_ZN19OpenColorIO_v2_4dev14validateParamsERKSt6vectorIdSaIdEEjPKdS6_(ptr noundef nonnull align 8 dereferenceable(24) %m_redParams, i32 noundef 1, ptr noundef nonnull @_ZZNK19OpenColorIO_v2_4dev11GammaOpData18validateParametersEvE9lowBounds, ptr noundef nonnull @_ZZNK19OpenColorIO_v2_4dev11GammaOpData18validateParametersEvE10highBounds)
  %m_greenParams = getelementptr inbounds i8, ptr %this, i64 200
  tail call void @_ZN19OpenColorIO_v2_4dev14validateParamsERKSt6vectorIdSaIdEEjPKdS6_(ptr noundef nonnull align 8 dereferenceable(24) %m_greenParams, i32 noundef 1, ptr noundef nonnull @_ZZNK19OpenColorIO_v2_4dev11GammaOpData18validateParametersEvE9lowBounds, ptr noundef nonnull @_ZZNK19OpenColorIO_v2_4dev11GammaOpData18validateParametersEvE10highBounds)
  %m_blueParams = getelementptr inbounds i8, ptr %this, i64 224
  tail call void @_ZN19OpenColorIO_v2_4dev14validateParamsERKSt6vectorIdSaIdEEjPKdS6_(ptr noundef nonnull align 8 dereferenceable(24) %m_blueParams, i32 noundef 1, ptr noundef nonnull @_ZZNK19OpenColorIO_v2_4dev11GammaOpData18validateParametersEvE9lowBounds, ptr noundef nonnull @_ZZNK19OpenColorIO_v2_4dev11GammaOpData18validateParametersEvE10highBounds)
  %m_alphaParams = getelementptr inbounds i8, ptr %this, i64 248
  tail call void @_ZN19OpenColorIO_v2_4dev14validateParamsERKSt6vectorIdSaIdEEjPKdS6_(ptr noundef nonnull align 8 dereferenceable(24) %m_alphaParams, i32 noundef 1, ptr noundef nonnull @_ZZNK19OpenColorIO_v2_4dev11GammaOpData18validateParametersEvE9lowBounds, ptr noundef nonnull @_ZZNK19OpenColorIO_v2_4dev11GammaOpData18validateParametersEvE10highBounds)
  br label %sw.epilog

sw.bb2:                                           ; preds = %entry, %entry, %entry, %entry
  %m_redParams3 = getelementptr inbounds i8, ptr %this, i64 176
  tail call void @_ZN19OpenColorIO_v2_4dev14validateParamsERKSt6vectorIdSaIdEEjPKdS6_(ptr noundef nonnull align 8 dereferenceable(24) %m_redParams3, i32 noundef 2, ptr noundef nonnull @_ZZNK19OpenColorIO_v2_4dev11GammaOpData18validateParametersEvE9lowBounds_0, ptr noundef nonnull @_ZZNK19OpenColorIO_v2_4dev11GammaOpData18validateParametersEvE10highBounds_0)
  %m_greenParams4 = getelementptr inbounds i8, ptr %this, i64 200
  tail call void @_ZN19OpenColorIO_v2_4dev14validateParamsERKSt6vectorIdSaIdEEjPKdS6_(ptr noundef nonnull align 8 dereferenceable(24) %m_greenParams4, i32 noundef 2, ptr noundef nonnull @_ZZNK19OpenColorIO_v2_4dev11GammaOpData18validateParametersEvE9lowBounds_0, ptr noundef nonnull @_ZZNK19OpenColorIO_v2_4dev11GammaOpData18validateParametersEvE10highBounds_0)
  %m_blueParams5 = getelementptr inbounds i8, ptr %this, i64 224
  tail call void @_ZN19OpenColorIO_v2_4dev14validateParamsERKSt6vectorIdSaIdEEjPKdS6_(ptr noundef nonnull align 8 dereferenceable(24) %m_blueParams5, i32 noundef 2, ptr noundef nonnull @_ZZNK19OpenColorIO_v2_4dev11GammaOpData18validateParametersEvE9lowBounds_0, ptr noundef nonnull @_ZZNK19OpenColorIO_v2_4dev11GammaOpData18validateParametersEvE10highBounds_0)
  %m_alphaParams6 = getelementptr inbounds i8, ptr %this, i64 248
  tail call void @_ZN19OpenColorIO_v2_4dev14validateParamsERKSt6vectorIdSaIdEEjPKdS6_(ptr noundef nonnull align 8 dereferenceable(24) %m_alphaParams6, i32 noundef 2, ptr noundef nonnull @_ZZNK19OpenColorIO_v2_4dev11GammaOpData18validateParametersEvE9lowBounds_0, ptr noundef nonnull @_ZZNK19OpenColorIO_v2_4dev11GammaOpData18validateParametersEvE10highBounds_0)
  br label %sw.epilog

sw.epilog:                                        ; preds = %sw.bb2, %sw.bb, %entry
  ret void
}